target datalayout = "e-m:e-p270:32:32-p271:32:32-p272:64:64-i64:64-i128:128-f80:128-n8:16:32:64-S128"
target triple = "x86_64-pc-linux-gnu"

%struct.cvc_table_copy_ctx = type { i64, ptr }
%struct.rb_cvar_class_tbl_entry = type { i32, i64, ptr, i64 }

@.str.29 = private unnamed_addr constant [11 x i8] c"../class.c\00", align 1

; Function Attrs: inlinehint nounwind sspstrong willreturn memory(none) uwtable
define internal zeroext i1 @RB_IMMEDIATE_P(i64 noundef %0) #1 {
  %2 = alloca i64, align 8
  store i64 %0, ptr %2, align 8, !tbaa !7
  %3 = load i64, ptr %2, align 8, !tbaa !7
  %4 = and i64 %3, 7
  %5 = icmp ne i64 %4, 0
  ret i1 %5
}

; Function Attrs: inlinehint nounwind sspstrong willreturn memory(none) uwtable
define internal zeroext i1 @RB_SPECIAL_CONST_P(i64 noundef %0) #1 {
  %2 = alloca i64, align 8
  store i64 %0, ptr %2, align 8, !tbaa !7
  %3 = load i64, ptr %2, align 8, !tbaa !7
  %4 = icmp eq i64 %3, 0
  br i1 %4, label %8, label %5

5:                                                ; preds = %1
  %6 = load i64, ptr %2, align 8, !tbaa !7
  %7 = call zeroext i1 @RB_IMMEDIATE_P(i64 noundef %6) #22
  br label %8

8:                                                ; preds = %5, %1
  %9 = phi i1 [ true, %1 ], [ %7, %5 ]
  ret i1 %9
}

; Function Attrs: inlinehint nounwind sspstrong uwtable
define internal i64 @rb_obj_written(i64 noundef %0, i64 noundef %1, i64 noundef %2, ptr noundef %3, i32 noundef %4) #4 {
  %6 = alloca i64, align 8
  %7 = alloca i64, align 8
  %8 = alloca i64, align 8
  %9 = alloca ptr, align 8
  %10 = alloca i32, align 4
  store i64 %0, ptr %6, align 8, !tbaa !7
  store i64 %1, ptr %7, align 8, !tbaa !7
  store i64 %2, ptr %8, align 8, !tbaa !7
  store ptr %3, ptr %9, align 8, !tbaa !64
  store i32 %4, ptr %10, align 4, !tbaa !39
  %11 = load i64, ptr %8, align 8, !tbaa !7
  %12 = call zeroext i1 @RB_SPECIAL_CONST_P(i64 noundef %11) #22
  br i1 %12, label %16, label %13

13:                                               ; preds = %5
  %14 = load i64, ptr %6, align 8, !tbaa !7
  %15 = load i64, ptr %8, align 8, !tbaa !7
  call void @rb_gc_writebarrier(i64 noundef %14, i64 noundef %15)
  br label %16

16:                                               ; preds = %13, %5
  %17 = load i64, ptr %6, align 8, !tbaa !7
  ret i64 %17
}

; Function Attrs: nounwind sspstrong uwtable
define internal i32 @cvc_table_copy(i64 noundef %0, i64 noundef %1, ptr noundef %2) #0 {
  %4 = alloca i64, align 8
  %5 = alloca i64, align 8
  %6 = alloca ptr, align 8
  %7 = alloca ptr, align 8
  %8 = alloca ptr, align 8
  %9 = alloca ptr, align 8
  store i64 %0, ptr %4, align 8, !tbaa !7
  store i64 %1, ptr %5, align 8, !tbaa !7
  store ptr %2, ptr %6, align 8, !tbaa !29
  call void @llvm.lifetime.start.p0(i64 8, ptr %7) #23
  %10 = load ptr, ptr %6, align 8, !tbaa !29
  store ptr %10, ptr %7, align 8, !tbaa !131
  call void @llvm.lifetime.start.p0(i64 8, ptr %8) #23
  %11 = load i64, ptr %5, align 8, !tbaa !7
  %12 = inttoptr i64 %11 to ptr
  store ptr %12, ptr %8, align 8, !tbaa !133
  call void @llvm.lifetime.start.p0(i64 8, ptr %9) #23
  %13 = call noalias nonnull ptr @ruby_xmalloc(i64 noundef 32) #26
  store ptr %13, ptr %9, align 8, !tbaa !133
  %14 = load ptr, ptr %7, align 8, !tbaa !131
  %15 = getelementptr inbounds nuw %struct.cvc_table_copy_ctx, ptr %14, i32 0, i32 0
  %16 = load i64, ptr %15, align 8, !tbaa !53
  %17 = load ptr, ptr %9, align 8, !tbaa !133
  %18 = getelementptr inbounds nuw %struct.rb_cvar_class_tbl_entry, ptr %17, i32 0, i32 3
  store i64 %16, ptr %18, align 8, !tbaa !135
  %19 = load ptr, ptr %8, align 8, !tbaa !133
  %20 = getelementptr inbounds nuw %struct.rb_cvar_class_tbl_entry, ptr %19, i32 0, i32 2
  %21 = load ptr, ptr %20, align 8, !tbaa !138
  %22 = load ptr, ptr %9, align 8, !tbaa !133
  %23 = getelementptr inbounds nuw %struct.rb_cvar_class_tbl_entry, ptr %22, i32 0, i32 2
  store ptr %21, ptr %23, align 8, !tbaa !138
  %24 = load ptr, ptr %8, align 8, !tbaa !133
  %25 = getelementptr inbounds nuw %struct.rb_cvar_class_tbl_entry, ptr %24, i32 0, i32 1
  %26 = load i64, ptr %25, align 8, !tbaa !139
  %27 = load ptr, ptr %9, align 8, !tbaa !133
  %28 = getelementptr inbounds nuw %struct.rb_cvar_class_tbl_entry, ptr %27, i32 0, i32 1
  store i64 %26, ptr %28, align 8, !tbaa !139
  %29 = load ptr, ptr %7, align 8, !tbaa !131
  %30 = getelementptr inbounds nuw %struct.cvc_table_copy_ctx, ptr %29, i32 0, i32 1
  %31 = load ptr, ptr %30, align 8, !tbaa !55
  %32 = load i64, ptr %4, align 8, !tbaa !7
  %33 = load ptr, ptr %9, align 8, !tbaa !133
  %34 = ptrtoint ptr %33 to i64
  %35 = call i32 @rb_id_table_insert(ptr noundef %31, i64 noundef %32, i64 noundef %34)
  %36 = load ptr, ptr %7, align 8, !tbaa !131
  %37 = getelementptr inbounds nuw %struct.cvc_table_copy_ctx, ptr %36, i32 0, i32 0
  %38 = load i64, ptr %37, align 8, !tbaa !53
  %39 = load ptr, ptr %9, align 8, !tbaa !133
  %40 = getelementptr inbounds nuw %struct.rb_cvar_class_tbl_entry, ptr %39, i32 0, i32 2
  %41 = load ptr, ptr %40, align 8, !tbaa !138
  %42 = ptrtoint ptr %41 to i64
  %43 = call i64 @rb_obj_written(i64 noundef %38, i64 noundef 36, i64 noundef %42, ptr noundef @.str.29, i32 noundef 461)
  call void @llvm.lifetime.end.p0(i64 8, ptr %9) #23
  call void @llvm.lifetime.end.p0(i64 8, ptr %8) #23
  call void @llvm.lifetime.end.p0(i64 8, ptr %7) #23
  ret i32 0
}