; Function Attrs: nounwind sspstrong uwtable
define internal noundef i32 @cvc_table_copy(i64 noundef %0, i64 noundef %1, ptr noundef readonly captures(none) %2) #0 {
  %4 = inttoptr i64 %1 to ptr
  %5 = tail call noalias nonnull dereferenceable(32) ptr @ruby_xmalloc(i64 noundef 32) #20
  %6 = load i64, ptr %2, align 8, !tbaa !50
  %7 = getelementptr inbounds nuw i8, ptr %5, i64 24
  store i64 %6, ptr %7, align 8, !tbaa !112
  %8 = getelementptr inbounds nuw i8, ptr %4, i64 16
  %9 = load ptr, ptr %8, align 8, !tbaa !114
  %10 = getelementptr inbounds nuw i8, ptr %5, i64 16
  store ptr %9, ptr %10, align 8, !tbaa !114
  %11 = getelementptr inbounds nuw i8, ptr %4, i64 8
  %12 = load i64, ptr %11, align 8, !tbaa !115
  %13 = getelementptr inbounds nuw i8, ptr %5, i64 8
  store i64 %12, ptr %13, align 8, !tbaa !115
  %14 = getelementptr inbounds nuw i8, ptr %2, i64 8
  %15 = load ptr, ptr %14, align 8, !tbaa !52
  %16 = ptrtoint ptr %5 to i64
  %17 = tail call i32 @rb_id_table_insert(ptr noundef %15, i64 noundef %0, i64 noundef %16) #19
  %18 = load ptr, ptr %10, align 8, !tbaa !114
  %19 = ptrtoint ptr %18 to i64
  %20 = icmp eq ptr %18, null
  %21 = and i64 %19, 7
  %22 = icmp ne i64 %21, 0
  %23 = or i1 %20, %22
  br i1 %23, label %rb_obj_written.exit, label %24

24:                                               ; preds = %3
  %25 = load i64, ptr %2, align 8, !tbaa !50
  tail call void @rb_gc_writebarrier(i64 noundef %25, i64 noundef %19) #19
  br label %rb_obj_written.exit

rb_obj_written.exit:                              ; preds = %3, %24
  ret i32 0
}